(dp0
S'IPFMD11X FACILITY AMT PD, MEDICAID (IMPUTED)'
p1
(I158
I166
tp2
sS'IPXP11X TOT EXP FOR EVENT (IPFXP11X+IPDXP11X)'
p3
(I122
I130
tp4
sS'SPECCOND HOSPITAL STAY RELATED TO CONDITION'
p5
(I80
I81
tp6
sS'IPBEGDD EVENT START DATE - DAY'
p7
(I63
I64
tp8
sS'IPPRO1X 2-DIGIT ICD-9-CM PROCEDURE CODE'
p9
(I102
I103
tp10
sS'ANYOPER ANY OPERATIONS OR SURGERIES PERFORMED'
p11
(I88
I89
tp12
sS'EPIDURAL RECEIVE AN EPIDURAL OR SPINAL FOR PAIN'
p13
(I86
I87
tp14
sS'EVENTRN EVENT ROUND NUMBER'
p15
(I29
I29
tp16
sS'EVNTIDX EVENT ID'
p17
(I17
I28
tp18
sS'IPFOF11X FACILITY AMT PD, OTH FEDERAL (IMPUTED)'
p19
(I192
I199
tp20
sS'IPFPV11X FACILITY AMT PD, PRIV INSUR (IMPUTED)'
p21
(I167
I175
tp22
sS'DUID DWELLING UNIT ID'
p23
(I1
I5
tp24
sS'IPBEGYR EVENT START DATE - YEAR'
p25
(I57
I60
tp26
sS'PANEL PANEL NUMBER'
p27
(I54
I55
tp28
sS'IPCCC4X MODIFIED CLINICAL CLASSIFICATION CODE'
p29
(I115
I117
tp30
sS'DUPERSID PERSON ID (DUID + PID)'
p31
(I9
I16
tp32
sS'IPFSF11X FACILITY AMT PD, FAMILY (IMPUTED)'
p33
(I141
I148
tp34
sS'NUMNIGHT NUMBER OF NIGHTS STAYED AT PROVIDER'
p35
(I76
I77
tp36
sS'DSCHPMED MEDICINES PRESCRIBED AT DISCHARGE'
p37
(I118
I119
tp38
sS'IPFMR11X FACILITY AMT PD, MEDICARE (IMPUTED)'
p39
(I149
I157
tp40
sS'IPENDMM EVENT END DATE - MONTH'
p41
(I69
I70
tp42
sS'IPICD3X 3-DIGIT ICD-9-CM CONDITION CODE'
p43
(I96
I98
tp44
sS'IPICD1X 3-DIGIT ICD-9-CM CONDITION CODE'
p45
(I90
I92
tp46
sS'IPENDDD EVENT END DATE - DAY'
p47
(I71
I72
tp48
sS'ERHEVIDX EVENT ID FOR CORRESPONDING EMER RM VISIT'
p49
(I30
I41
tp50
sS'IPICD4X 3-DIGIT ICD-9-CM CONDITION CODE'
p51
(I99
I101
tp52
sS'IPTC11X TOTAL CHG FOR EVENT (IPFTC11X+IPDTC11X)'
p53
(I131
I140
tp54
sS'IPCCC3X MODIFIED CLINICAL CLASSIFICATION CODE'
p55
(I112
I114
tp56
sS'PID PERSON NUMBER'
p57
(I6
I8
tp58
sS'DLVRTYPE VAGINAL OR CAESAREAN DELIVERY'
p59
(I84
I85
tp60
sS'RSNINHOS REASON ENTERED HOSPITAL'
p61
(I82
I83
tp62
sS'FFIPTYPE FLAT FEE BUNDLE'
p63
(I120
I121
tp64
sS'MPCDATA MPC DATA FLAG'
p65
(I56
I56
tp66
sS'FFEEIDX FLAT FEE ID'
p67
(I42
I53
tp68
sS'EMERROOM DID STAY BEGIN WITH EMERGENCY ROOM VISIT'
p69
(I78
I79
tp70
sS'IPCCC2X MODIFIED CLINICAL CLASSIFICATION CODE'
p71
(I109
I111
tp72
sS'IPFVA11X FAC AMT PD,VETERANS/CHAMPVA(IMPUTED)'
p73
(I176
I183
tp74
sS'IPENDYR EVENT END DATE - YEAR'
p75
(I65
I68
tp76
sS'NUMNIGHX NUM OF NIGHTS IN HOSPITAL - EDITED/IMPUTED'
p77
(I73
I75
tp78
sS'IPPRO2X 2-DIGIT ICD-9-CM PROCEDURE CODE'
p79
(I104
I105
tp80
sS'IPCCC1X MODIFIED CLINICAL CLASSIFICATION CODE'
p81
(I106
I108
tp82
sS'IPFTR11X FACILITY AMT PD,TRICARE(IMPUTED)'
p83
(I184
I191
tp84
sS'IPICD2X 3-DIGIT ICD-9-CM CONDITION CODE'
p85
(I93
I95
tp86
sS'IPBEGMM EVENT START DATE - MONTH'
p87
(I61
I62
tp88
s.